-----BEGIN PRIVATE KEY-----
MIIEvAIBADANBgkqhkiG9w0BAQEFAASCBKYwggSiAgEAAoIBAQCr/OgmaTEhQStQ
WSki9IRy5L6YuJs+145P9RiAYha5AKsLxd5PYoKlFgUXtldgkRl6ecvYQxh9nqpo
A0fAY5DGMnJawy8CiYaygDYxLSxk6ybqm56AiLHjBxwz/pA6kmjcZGqytuEzhKhc
P75jArzzW8BEZmPrgTHfbcnrEY7lfBoi/lxotTW3LUKn/EZHgHUPc0OIYDwS8coN
eoEKlr5fOhQYG8Is/aZPr+7I7rDqLJI244gQgiYZFcHbHu2I7ZVIuOJ1dvH1l3bw
/pVlefqoARquTyWqGihx10gp+kUh2WSXPWL1fPLAAneYwUDoA5XQeeWPBbkBjv6B
aurZ9c6jAgMBAAECggEAIkab6ZPLQ8peHHw4c4vxnYgy5/LalbKV3R+Gi4eA6cvV
StpbTMzgJpB14Vzomwkv37XIR0hP6DEn2uTUduYg4y8IlUgS5VmNK6PbqP9MuqwW
rGjpNMqJUSqIl2AjVFj7ZvjoPsetp/vHJeNaSRcxmvptHfSd80BjNRkHRb7RELDQ
KPcPrNVj/tE6gWjmsOKnMjqlvPJZHHe+SPJBEW3dS5NWrmJeqB+l/TxCc/SXo9Gj
0JLGBwRI6lmQTzpG77L+OO/JR2pGrgA77ezSPgIix1AdRhMS8ezXevLVoU9sEBXO
h3GaM5Cf5s0yc+4TFl8q3VzTfFG4NL5ncBxlZeLAgQKBgQDeftGffGgkaZZ3R/pf
I1Ga1bLcFbCVodssB5/QmkYpSsFHQnU2ksAKbddSco3WOguquXphNa5Tyb0b70+A
B7YGx6FVF3nmzXEHgngILahIvA73V2EV/1zCMKz1B92jzSzdd/ZP5BFh42ycnACN
s+5l8guv5XaHZwWyF7WRWw+nQQKBgQDF4wdY+6WWCFEq7wrvyg3N/05yyPIOEoUC
32hNJk4jQI9p9NBpLLU/RdydglxQnXuuO63l4j/1Oa2zXv1tMQ2TA4MxawMFE0cI
MZLMbrZWTQdGerGYAcT/FR4BH2Lo4bNvSIOgey/fqpA5ooWk0+EasKt2sYNYSR/J
S9I1/nSA4wKBgBCJbn0jGv5x1pwg/mvpzRvr/DI9bnWApTCdlHRFsydIhhsMxnd6
6skbpuBa4U3l3I4g4Qaunbleii60V71VVWMlnUkcyJOt+1Oqj89TzWkyiQ47MV0Y
MMXCJmjD3+ZXzpjbXLRNaDlVVPJC6gueLv7mwZWeQXQI5TR6bKVUFlLBAoGAY+PY
P6i3y2ZjYqLMCIMcONIZjYO1/DiJAAw6IEenxc+/FSNJWO4Ch/ACD1hQtTjpx+fE
PnjZBDabYiIfF1FdospxHS8BlTxH7PDpQ1zXmfTEKWWh5DNwd7r3LGXljdzwsMoP
96B3aBY3O4C4qZ1y0gBAbWfp/1TaQMiPUkYiFTUCgYAtl9UInGSiMTX3gf11L1RL
L4VtlsonbGHysr8HZHDMHRe5Tqky1njeT82c+AkAhA2hLQUDozrVqcrVplTfA1oV
RjU2UU7DsiMhhHhMTvnoEdCNNuTMTv2rJRN0qPRUM8PVLXDSoe43hewmSg9jqG7d
0NX+7n9c+ATn5wzB5U/udw==
-----END PRIVATE KEY-----
Certificate:
    Data:
        Version: 3 (0x2)
        Serial Number: 16865500541931442563 (0xea0e4b62b8fb5183)
    Signature Algorithm: sha256WithRSAEncryption
        Issuer: C=ZZ, O=Fake Org, OU=Hosts, CN=Fake Org Fake CA - a7a23f33
        Validity
            Not Before: Apr 13 17:14:24 2017 GMT
            Not After : Apr 13 17:14:24 2018 GMT
        Subject: C=ZZ, O=Fake Org, OU=Hosts, CN=blade05.tasty.bacon
        Subject Public Key Info:
            Public Key Algorithm: rsaEncryption
                Public-Key: (2048 bit)
                Modulus:
                    00:ab:fc:e8:26:69:31:21:41:2b:50:59:29:22:f4:
                    84:72:e4:be:98:b8:9b:3e:d7:8e:4f:f5:18:80:62:
                    16:b9:00:ab:0b:c5:de:4f:62:82:a5:16:05:17:b6:
                    57:60:91:19:7a:79:cb:d8:43:18:7d:9e:aa:68:03:
                    47:c0:63:90:c6:32:72:5a:c3:2f:02:89:86:b2:80:
                    36:31:2d:2c:64:eb:26:ea:9b:9e:80:88:b1:e3:07:
                    1c:33:fe:90:3a:92:68:dc:64:6a:b2:b6:e1:33:84:
                    a8:5c:3f:be:63:02:bc:f3:5b:c0:44:66:63:eb:81:
                    31:df:6d:c9:eb:11:8e:e5:7c:1a:22:fe:5c:68:b5:
                    35:b7:2d:42:a7:fc:46:47:80:75:0f:73:43:88:60:
                    3c:12:f1:ca:0d:7a:81:0a:96:be:5f:3a:14:18:1b:
                    c2:2c:fd:a6:4f:af:ee:c8:ee:b0:ea:2c:92:36:e3:
                    88:10:82:26:19:15:c1:db:1e:ed:88:ed:95:48:b8:
                    e2:75:76:f1:f5:97:76:f0:fe:95:65:79:fa:a8:01:
                    1a:ae:4f:25:aa:1a:28:71:d7:48:29:fa:45:21:d9:
                    64:97:3d:62:f5:7c:f2:c0:02:77:98:c1:40:e8:03:
                    95:d0:79:e5:8f:05:b9:01:8e:fe:81:6a:ea:d9:f5:
                    ce:a3
                Exponent: 65537 (0x10001)
        X509v3 extensions:
            X509v3 Basic Constraints: 
                CA:FALSE
            Netscape Cert Type: 
                SSL Client, SSL Server, S/MIME, Object Signing
            X509v3 Key Usage: 
                Digital Signature, Non Repudiation, Key Encipherment
            X509v3 Subject Key Identifier: 
                BF:6C:12:C1:A0:61:C3:28:30:A7:AE:A5:FC:3F:0B:FF:83:67:48:64
            X509v3 Authority Key Identifier: 
                keyid:B6:FC:96:A7:87:D9:6D:AA:DC:DC:A2:1A:A5:6B:23:08:BA:B2:12:85
                DirName:/C=ZZ/O=Fake Org/OU=Hosts/CN=Fake Org Fake CA - a7a23f33
                serial:EA:0E:4B:62:B8:FB:51:7D

    Signature Algorithm: sha256WithRSAEncryption
         bf:7f:32:7f:1e:15:74:49:df:91:06:3b:92:d2:0b:d1:16:a6:
         ba:50:0d:ed:f1:60:fb:d3:c6:65:9f:f3:99:ea:32:d6:42:ab:
         fc:f5:c8:f5:b3:3f:56:1c:eb:00:fe:bf:78:a0:c4:3a:75:fb:
         53:ab:43:ed:e7:e0:a4:9a:28:2d:fb:a9:0b:f5:10:a7:0a:ab:
         f2:51:3e:d2:ea:61:1c:2d:d0:1e:57:02:24:02:6e:60:b3:be:
         0c:80:13:4e:f6:a9:56:1f:51:20:32:db:ac:4a:34:91:48:7a:
         0f:68:f6:1f:82:db:51:cd:7c:37:a6:24:cc:00:ee:40:1e:74:
         91:88:57:de:29:dd:0f:78:3c:2b:8f:3e:0b:8c:f7:62:e2:e9:
         4c:fb:8f:e4:c5:e0:f7:38:fb:2a:63:0b:7c:af:f6:09:db:c5:
         41:9d:73:c4:02:96:a8:e6:7f:14:07:44:9c:ab:d8:c9:de:7a:
         c0:e1:55:4d:c8:a7:e5:86:03:e9:51:52:24:3f:9d:ac:7a:e1:
         bc:5d:1c:27:ba:f0:2a:87:33:c3:7b:0d:04:00:d8:d4:c6:2a:
         02:7a:5a:40:36:d3:81:73:a3:e4:be:d4:8a:df:b6:f2:5c:18:
         7f:88:8e:1b:d1:d3:8a:d1:9d:bd:c6:76:ef:e6:61:97:bd:db:
         f2:36:4a:73
-----BEGIN CERTIFICATE-----
MIID/jCCAuagAwIBAgIJAOoOS2K4+1GDMA0GCSqGSIb3DQEBCwUAMFYxCzAJBgNV
BAYTAlpaMREwDwYDVQQKEwhGYWtlIE9yZzEOMAwGA1UECxMFSG9zdHMxJDAiBgNV
BAMTG0Zha2UgT3JnIEZha2UgQ0EgLSBhN2EyM2YzMzAeFw0xNzA0MTMxNzE0MjRa
Fw0xODA0MTMxNzE0MjRaME4xCzAJBgNVBAYTAlpaMREwDwYDVQQKEwhGYWtlIE9y
ZzEOMAwGA1UECxMFSG9zdHMxHDAaBgNVBAMTE2JsYWRlMDUudGFzdHkuYmFjb24w
ggEiMA0GCSqGSIb3DQEBAQUAA4IBDwAwggEKAoIBAQCr/OgmaTEhQStQWSki9IRy
5L6YuJs+145P9RiAYha5AKsLxd5PYoKlFgUXtldgkRl6ecvYQxh9nqpoA0fAY5DG
MnJawy8CiYaygDYxLSxk6ybqm56AiLHjBxwz/pA6kmjcZGqytuEzhKhcP75jArzz
W8BEZmPrgTHfbcnrEY7lfBoi/lxotTW3LUKn/EZHgHUPc0OIYDwS8coNeoEKlr5f
OhQYG8Is/aZPr+7I7rDqLJI244gQgiYZFcHbHu2I7ZVIuOJ1dvH1l3bw/pVlefqo
ARquTyWqGihx10gp+kUh2WSXPWL1fPLAAneYwUDoA5XQeeWPBbkBjv6BaurZ9c6j
AgMBAAGjgdYwgdMwCQYDVR0TBAIwADARBglghkgBhvhCAQEEBAMCBPAwCwYDVR0P
BAQDAgXgMB0GA1UdDgQWBBS/bBLBoGHDKDCnrqX8Pwv/g2dIZDCBhgYDVR0jBH8w
fYAUtvyWp4fZbarc3KIapWsjCLqyEoWhWqRYMFYxCzAJBgNVBAYTAlpaMREwDwYD
VQQKEwhGYWtlIE9yZzEOMAwGA1UECxMFSG9zdHMxJDAiBgNVBAMTG0Zha2UgT3Jn
IEZha2UgQ0EgLSBhN2EyM2YzM4IJAOoOS2K4+1F9MA0GCSqGSIb3DQEBCwUAA4IB
AQC/fzJ/HhV0Sd+RBjuS0gvRFqa6UA3t8WD708Zln/OZ6jLWQqv89cj1sz9WHOsA
/r94oMQ6dftTq0Pt5+Ckmigt+6kL9RCnCqvyUT7S6mEcLdAeVwIkAm5gs74MgBNO
9qlWH1EgMtusSjSRSHoPaPYfgttRzXw3piTMAO5AHnSRiFfeKd0PeDwrjz4LjPdi
4ulM+4/kxeD3OPsqYwt8r/YJ28VBnXPEApao5n8UB0Scq9jJ3nrA4VVNyKflhgPp
UVIkP52seuG8XRwnuvAqhzPDew0EANjUxioCelpANtOBc6PkvtSK37byXBh/iI4b
0dOK0Z29xnbv5mGXvdvyNkpz
-----END CERTIFICATE-----
